target datalayout = "e-m:e-p270:32:32-p271:32:32-p272:64:64-i64:64-i128:128-f80:128-n8:16:32:64-S128"
target triple = "x86_64-pc-linux-gnu"

; Function Attrs: nounwind uwtable
define internal ptr @uriDefaultReallocarray(ptr noundef %0, ptr noundef %1, i64 noundef %2, i64 noundef %3) #0 {
  %5 = alloca ptr, align 8
  %6 = alloca ptr, align 8
  %7 = alloca ptr, align 8
  %8 = alloca i64, align 8
  %9 = alloca i64, align 8
  %10 = alloca i64, align 8
  %11 = alloca i32, align 4
  store ptr %0, ptr %6, align 8, !tbaa !3
  store ptr %1, ptr %7, align 8, !tbaa !18
  store i64 %2, ptr %8, align 8, !tbaa !14
  store i64 %3, ptr %9, align 8, !tbaa !14
  call void @llvm.lifetime.start.p0(i64 8, ptr %10) #9
  %12 = load i64, ptr %8, align 8, !tbaa !14
  %13 = load i64, ptr %9, align 8, !tbaa !14
  %14 = mul i64 %12, %13
  store i64 %14, ptr %10, align 8, !tbaa !14
  br label %15

15:                                               ; preds = %4
  %16 = load i64, ptr %8, align 8, !tbaa !14
  %17 = icmp ne i64 %16, 0
  br i1 %17, label %18, label %26

18:                                               ; preds = %15
  %19 = load i64, ptr %10, align 8, !tbaa !14
  %20 = load i64, ptr %8, align 8, !tbaa !14
  %21 = udiv i64 %19, %20
  %22 = load i64, ptr %9, align 8, !tbaa !14
  %23 = icmp ne i64 %21, %22
  br i1 %23, label %24, label %26

24:                                               ; preds = %18
  %25 = call ptr @__errno_location() #10
  store i32 12, ptr %25, align 4, !tbaa !16
  store ptr null, ptr %5, align 8
  store i32 1, ptr %11, align 4
  br label %32

26:                                               ; preds = %18, %15
  br label %27

27:                                               ; preds = %26
  br label %28

28:                                               ; preds = %27
  %29 = load ptr, ptr %7, align 8, !tbaa !18
  %30 = load i64, ptr %10, align 8, !tbaa !14
  %31 = call ptr @realloc(ptr noundef %29, i64 noundef %30) #13
  store ptr %31, ptr %5, align 8
  store i32 1, ptr %11, align 4
  br label %32

32:                                               ; preds = %28, %24
  call void @llvm.lifetime.end.p0(i64 8, ptr %10) #9
  %33 = load ptr, ptr %5, align 8
  ret ptr %33
}