; Function Attrs: mustprogress nounwind willreturn memory(write, argmem: readwrite, inaccessiblemem: readwrite) uwtable
define internal noalias noundef ptr @uriDefaultReallocarray(ptr readnone captures(none) %0, ptr noundef captures(none) %1, i64 noundef %2, i64 noundef %3) #7 {
  %mul = tail call { i64, i1 } @llvm.umul.with.overflow.i64(i64 %2, i64 %3)
  %mul.val = extractvalue { i64, i1 } %mul, 0
  %.not = icmp eq i64 %2, 0
  br i1 %.not, label %8, label %5

5:                                                ; preds = %4
  %mul.ov = extractvalue { i64, i1 } %mul, 1
  br i1 %mul.ov, label %6, label %8

6:                                                ; preds = %5
  %7 = tail call ptr @__errno_location() #14
  store i32 12, ptr %7, align 4, !tbaa !12
  br label %10

8:                                                ; preds = %5, %4
  %9 = tail call ptr @realloc(ptr noundef %1, i64 noundef %mul.val) #18
  br label %10

10:                                               ; preds = %8, %6
  %.0 = phi ptr [ null, %6 ], [ %9, %8 ]
  ret ptr %.0
}